target datalayout = "e-m:e-p270:32:32-p271:32:32-p272:64:64-i64:64-i128:128-f80:128-n8:16:32:64-S128"
target triple = "x86_64-pc-linux-gnu"

@_ZN7meshoptL19gEncodeIndexVersionE = internal global i32 1, align 4

; Function Attrs: mustprogress nounwind uwtable
define internal void @_ZN7meshoptL11encodeVByteERPhj(ptr noundef nonnull align 8 dereferenceable(8) %0, i32 noundef %1) #3 {
  %3 = alloca ptr, align 8
  %4 = alloca i32, align 4
  store ptr %0, ptr %3, align 8, !tbaa !25
  store i32 %1, ptr %4, align 4, !tbaa !13
  br label %5

5:                                                ; preds = %18, %2
  %6 = load i32, ptr %4, align 4, !tbaa !13
  %7 = and i32 %6, 127
  %8 = load i32, ptr %4, align 4, !tbaa !13
  %9 = icmp ugt i32 %8, 127
  %10 = select i1 %9, i32 128, i32 0
  %11 = or i32 %7, %10
  %12 = trunc i32 %11 to i8
  %13 = load ptr, ptr %3, align 8, !tbaa !25
  %14 = load ptr, ptr %13, align 8, !tbaa !4
  %15 = getelementptr inbounds nuw i8, ptr %14, i32 1
  store ptr %15, ptr %13, align 8, !tbaa !4
  store i8 %12, ptr %14, align 1, !tbaa !15
  %16 = load i32, ptr %4, align 4, !tbaa !13
  %17 = lshr i32 %16, 7
  store i32 %17, ptr %4, align 4, !tbaa !13
  br label %18

18:                                               ; preds = %5
  %19 = load i32, ptr %4, align 4, !tbaa !13
  %20 = icmp ne i32 %19, 0
  br i1 %20, label %5, label %21, !llvm.loop !38

21:                                               ; preds = %18
  ret void
}

; Function Attrs: mustprogress uwtable
define dso_local i64 @meshopt_encodeIndexSequence(ptr noundef %0, i64 noundef %1, ptr noundef %2, i64 noundef %3) #0 {
  %5 = alloca i64, align 8
  %6 = alloca ptr, align 8
  %7 = alloca i64, align 8
  %8 = alloca ptr, align 8
  %9 = alloca i64, align 8
  %10 = alloca i32, align 4
  %11 = alloca [2 x i32], align 4
  %12 = alloca i32, align 4
  %13 = alloca ptr, align 8
  %14 = alloca ptr, align 8
  %15 = alloca i64, align 8
  %16 = alloca i32, align 4
  %17 = alloca i32, align 4
  %18 = alloca i32, align 4
  %19 = alloca i32, align 4
  %20 = alloca i32, align 4
  %21 = alloca i32, align 4
  store ptr %0, ptr %6, align 8, !tbaa !4
  store i64 %1, ptr %7, align 8, !tbaa !9
  store ptr %2, ptr %8, align 8, !tbaa !11
  store i64 %3, ptr %9, align 8, !tbaa !9
  %22 = load i64, ptr %7, align 8, !tbaa !9
  %23 = load i64, ptr %9, align 8, !tbaa !9
  %24 = add i64 1, %23
  %25 = add i64 %24, 4
  %26 = icmp ult i64 %22, %25
  br i1 %26, label %27, label %28

27:                                               ; preds = %4
  store i64 0, ptr %5, align 8
  br label %122

28:                                               ; preds = %4
  call void @llvm.lifetime.start.p0(i64 4, ptr %10) #4
  %29 = load i32, ptr @_ZN7meshoptL19gEncodeIndexVersionE, align 4, !tbaa !13
  store i32 %29, ptr %10, align 4, !tbaa !13
  %30 = load i32, ptr %10, align 4, !tbaa !13
  %31 = or i32 208, %30
  %32 = trunc i32 %31 to i8
  %33 = load ptr, ptr %6, align 8, !tbaa !4
  %34 = getelementptr inbounds i8, ptr %33, i64 0
  store i8 %32, ptr %34, align 1, !tbaa !15
  call void @llvm.lifetime.start.p0(i64 8, ptr %11) #4
  call void @llvm.memset.p0.i64(ptr align 4 %11, i8 0, i64 8, i1 false)
  call void @llvm.lifetime.start.p0(i64 4, ptr %12) #4
  store i32 0, ptr %12, align 4, !tbaa !13
  call void @llvm.lifetime.start.p0(i64 8, ptr %13) #4
  %35 = load ptr, ptr %6, align 8, !tbaa !4
  %36 = getelementptr inbounds i8, ptr %35, i64 1
  store ptr %36, ptr %13, align 8, !tbaa !4
  call void @llvm.lifetime.start.p0(i64 8, ptr %14) #4
  %37 = load ptr, ptr %6, align 8, !tbaa !4
  %38 = load i64, ptr %7, align 8, !tbaa !9
  %39 = getelementptr inbounds nuw i8, ptr %37, i64 %38
  %40 = getelementptr inbounds i8, ptr %39, i64 -4
  store ptr %40, ptr %14, align 8, !tbaa !4
  call void @llvm.lifetime.start.p0(i64 8, ptr %15) #4
  store i64 0, ptr %15, align 8, !tbaa !9
  br label %41

41:                                               ; preds = %94, %28
  %42 = load i64, ptr %15, align 8, !tbaa !9
  %43 = load i64, ptr %9, align 8, !tbaa !9
  %44 = icmp ult i64 %42, %43
  br i1 %44, label %46, label %45

45:                                               ; preds = %41
  store i32 2, ptr %16, align 4
  br label %97

46:                                               ; preds = %41
  %47 = load ptr, ptr %13, align 8, !tbaa !4
  %48 = load ptr, ptr %14, align 8, !tbaa !4
  %49 = icmp uge ptr %47, %48
  br i1 %49, label %50, label %51

50:                                               ; preds = %46
  store i64 0, ptr %5, align 8
  store i32 1, ptr %16, align 4
  br label %97

51:                                               ; preds = %46
  call void @llvm.lifetime.start.p0(i64 4, ptr %17) #4
  %52 = load ptr, ptr %8, align 8, !tbaa !11
  %53 = load i64, ptr %15, align 8, !tbaa !9
  %54 = getelementptr inbounds nuw i32, ptr %52, i64 %53
  %55 = load i32, ptr %54, align 4, !tbaa !13
  store i32 %55, ptr %17, align 4, !tbaa !13
  call void @llvm.lifetime.start.p0(i64 4, ptr %18) #4
  %56 = load i32, ptr %17, align 4, !tbaa !13
  %57 = load i32, ptr %12, align 4, !tbaa !13
  %58 = zext i32 %57 to i64
  %59 = getelementptr inbounds nuw [2 x i32], ptr %11, i64 0, i64 %58
  %60 = load i32, ptr %59, align 4, !tbaa !13
  %61 = sub i32 %56, %60
  store i32 %61, ptr %18, align 4, !tbaa !13
  %62 = load i32, ptr %18, align 4, !tbaa !13
  %63 = icmp slt i32 %62, 0
  br i1 %63, label %64, label %67

64:                                               ; preds = %51
  %65 = load i32, ptr %18, align 4, !tbaa !13
  %66 = sub nsw i32 0, %65
  br label %69

67:                                               ; preds = %51
  %68 = load i32, ptr %18, align 4, !tbaa !13
  br label %69

69:                                               ; preds = %67, %64
  %70 = phi i32 [ %66, %64 ], [ %68, %67 ]
  %71 = icmp sge i32 %70, 30
  %72 = zext i1 %71 to i32
  %73 = load i32, ptr %12, align 4, !tbaa !13
  %74 = xor i32 %73, %72
  store i32 %74, ptr %12, align 4, !tbaa !13
  call void @llvm.lifetime.start.p0(i64 4, ptr %19) #4
  %75 = load i32, ptr %17, align 4, !tbaa !13
  %76 = load i32, ptr %12, align 4, !tbaa !13
  %77 = zext i32 %76 to i64
  %78 = getelementptr inbounds nuw [2 x i32], ptr %11, i64 0, i64 %77
  %79 = load i32, ptr %78, align 4, !tbaa !13
  %80 = sub i32 %75, %79
  store i32 %80, ptr %19, align 4, !tbaa !13
  call void @llvm.lifetime.start.p0(i64 4, ptr %20) #4
  %81 = load i32, ptr %19, align 4, !tbaa !13
  %82 = shl i32 %81, 1
  %83 = load i32, ptr %19, align 4, !tbaa !13
  %84 = ashr i32 %83, 31
  %85 = xor i32 %82, %84
  store i32 %85, ptr %20, align 4, !tbaa !13
  %86 = load i32, ptr %20, align 4, !tbaa !13
  %87 = shl i32 %86, 1
  %88 = load i32, ptr %12, align 4, !tbaa !13
  %89 = or i32 %87, %88
  call void @_ZN7meshoptL11encodeVByteERPhj(ptr noundef nonnull align 8 dereferenceable(8) %13, i32 noundef %89)
  %90 = load i32, ptr %17, align 4, !tbaa !13
  %91 = load i32, ptr %12, align 4, !tbaa !13
  %92 = zext i32 %91 to i64
  %93 = getelementptr inbounds nuw [2 x i32], ptr %11, i64 0, i64 %92
  store i32 %90, ptr %93, align 4, !tbaa !13
  call void @llvm.lifetime.end.p0(i64 4, ptr %20) #4
  call void @llvm.lifetime.end.p0(i64 4, ptr %19) #4
  call void @llvm.lifetime.end.p0(i64 4, ptr %18) #4
  call void @llvm.lifetime.end.p0(i64 4, ptr %17) #4
  br label %94

94:                                               ; preds = %69
  %95 = load i64, ptr %15, align 8, !tbaa !9
  %96 = add i64 %95, 1
  store i64 %96, ptr %15, align 8, !tbaa !9
  br label %41, !llvm.loop !36

97:                                               ; preds = %50, %45
  call void @llvm.lifetime.end.p0(i64 8, ptr %15) #4
  %98 = load i32, ptr %16, align 4
  switch i32 %98, label %121 [
    i32 2, label %99
  ]

99:                                               ; preds = %97
  %100 = load ptr, ptr %13, align 8, !tbaa !4
  %101 = load ptr, ptr %14, align 8, !tbaa !4
  %102 = icmp ugt ptr %100, %101
  br i1 %102, label %103, label %104

103:                                              ; preds = %99
  store i64 0, ptr %5, align 8
  store i32 1, ptr %16, align 4
  br label %121

104:                                              ; preds = %99
  call void @llvm.lifetime.start.p0(i64 4, ptr %21) #4
  store i32 0, ptr %21, align 4, !tbaa !13
  br label %105

105:                                              ; preds = %112, %104
  %106 = load i32, ptr %21, align 4, !tbaa !13
  %107 = icmp slt i32 %106, 4
  br i1 %107, label %109, label %108

108:                                              ; preds = %105
  store i32 5, ptr %16, align 4
  call void @llvm.lifetime.end.p0(i64 4, ptr %21) #4
  br label %115

109:                                              ; preds = %105
  %110 = load ptr, ptr %13, align 8, !tbaa !4
  %111 = getelementptr inbounds nuw i8, ptr %110, i32 1
  store ptr %111, ptr %13, align 8, !tbaa !4
  store i8 0, ptr %110, align 1, !tbaa !15
  br label %112

112:                                              ; preds = %109
  %113 = load i32, ptr %21, align 4, !tbaa !13
  %114 = add nsw i32 %113, 1
  store i32 %114, ptr %21, align 4, !tbaa !13
  br label %105, !llvm.loop !37

115:                                              ; preds = %108
  %116 = load ptr, ptr %13, align 8, !tbaa !4
  %117 = load ptr, ptr %6, align 8, !tbaa !4
  %118 = ptrtoint ptr %116 to i64
  %119 = ptrtoint ptr %117 to i64
  %120 = sub i64 %118, %119
  store i64 %120, ptr %5, align 8
  store i32 1, ptr %16, align 4
  br label %121

121:                                              ; preds = %115, %103, %97
  call void @llvm.lifetime.end.p0(i64 8, ptr %14) #4
  call void @llvm.lifetime.end.p0(i64 8, ptr %13) #4
  call void @llvm.lifetime.end.p0(i64 4, ptr %12) #4
  call void @llvm.lifetime.end.p0(i64 8, ptr %11) #4
  call void @llvm.lifetime.end.p0(i64 4, ptr %10) #4
  br label %122

122:                                              ; preds = %121, %27
  %123 = load i64, ptr %5, align 8
  ret i64 %123
}