; Function Attrs: mustprogress nofree norecurse nosync nounwind memory(read, argmem: readwrite, inaccessiblemem: none) uwtable
define dso_local i64 @meshopt_encodeIndexSequence(ptr noundef %0, i64 noundef %1, ptr noundef readonly captures(none) %2, i64 noundef %3) local_unnamed_addr #6 {
  %5 = alloca [2 x i32], align 8
  %6 = add i64 %3, 5
  %7 = icmp ult i64 %1, %6
  br i1 %7, label %44, label %8

8:                                                ; preds = %4
  %9 = load i32, ptr @_ZN7meshoptL19gEncodeIndexVersionE, align 4, !tbaa !4
  %10 = trunc i32 %9 to i8
  %11 = or i8 %10, -48
  store i8 %11, ptr %0, align 1, !tbaa !8
  call void @llvm.lifetime.start.p0(i64 8, ptr nonnull %5) #9
  store i64 0, ptr %5, align 8
  %12 = getelementptr inbounds nuw i8, ptr %0, i64 1
  %13 = getelementptr inbounds nuw i8, ptr %0, i64 %1
  %14 = getelementptr inbounds i8, ptr %13, i64 -4
  %.not3746.not = icmp eq i64 %3, 0
  br i1 %.not3746.not, label %.critedge, label %.lr.ph

.lr.ph:                                           ; preds = %8, %_ZN7meshoptL11encodeVByteERPhj.exit
  %15 = phi i32 [ %18, %_ZN7meshoptL11encodeVByteERPhj.exit ], [ 0, %8 ]
  %.03349 = phi i32 [ %23, %_ZN7meshoptL11encodeVByteERPhj.exit ], [ 0, %8 ]
  %.03448 = phi i64 [ %40, %_ZN7meshoptL11encodeVByteERPhj.exit ], [ 0, %8 ]
  %.04347 = phi ptr [ %38, %_ZN7meshoptL11encodeVByteERPhj.exit ], [ %12, %8 ]
  %.not = icmp ult ptr %.04347, %14
  br i1 %.not, label %16, label %.loopexit

16:                                               ; preds = %.lr.ph
  %17 = getelementptr inbounds nuw i32, ptr %2, i64 %.03448
  %18 = load i32, ptr %17, align 4, !tbaa !4
  %19 = sub i32 %18, %15
  %20 = tail call i32 @llvm.abs.i32(i32 %19, i1 true)
  %21 = icmp samesign ugt i32 %20, 29
  %22 = zext i1 %21 to i32
  %23 = xor i32 %.03349, %22
  %24 = zext nneg i32 %23 to i64
  %25 = getelementptr inbounds nuw [2 x i32], ptr %5, i64 0, i64 %24
  %26 = load i32, ptr %25, align 4, !tbaa !4
  %27 = sub i32 %18, %26
  %28 = shl i32 %27, 2
  %29 = ashr i32 %27, 30
  %30 = and i32 %29, -2
  %31 = xor i32 %30, %28
  %32 = or i32 %31, %23
  br label %33

33:                                               ; preds = %33, %16
  %.244 = phi ptr [ %.04347, %16 ], [ %38, %33 ]
  %.0.i = phi i32 [ %32, %16 ], [ %39, %33 ]
  %34 = and i32 %.0.i, 127
  %.inv.i = icmp ult i32 %.0.i, 128
  %35 = select i1 %.inv.i, i32 0, i32 128
  %36 = or disjoint i32 %35, %34
  %37 = trunc nuw i32 %36 to i8
  %38 = getelementptr inbounds nuw i8, ptr %.244, i64 1
  store i8 %37, ptr %.244, align 1, !tbaa !8
  %39 = lshr i32 %.0.i, 7
  br i1 %.inv.i, label %_ZN7meshoptL11encodeVByteERPhj.exit, label %33, !llvm.loop !12

_ZN7meshoptL11encodeVByteERPhj.exit:              ; preds = %33
  store i32 %18, ptr %25, align 4, !tbaa !4
  %40 = add nuw i64 %.03448, 1
  %exitcond.not = icmp eq i64 %40, %3
  br i1 %exitcond.not, label %.critedge, label %.lr.ph, !llvm.loop !21

.critedge:                                        ; preds = %_ZN7meshoptL11encodeVByteERPhj.exit, %8
  %.043.lcssa = phi ptr [ %12, %8 ], [ %38, %_ZN7meshoptL11encodeVByteERPhj.exit ]
  %.old38 = icmp ugt ptr %.043.lcssa, %14
  br i1 %.old38, label %.loopexit, label %.preheader.preheader

.preheader.preheader:                             ; preds = %.critedge
  store i32 0, ptr %.043.lcssa, align 1
  %scevgep = getelementptr i8, ptr %.043.lcssa, i64 4
  %41 = ptrtoint ptr %scevgep to i64
  %42 = ptrtoint ptr %0 to i64
  %43 = sub i64 %41, %42
  br label %.loopexit

.loopexit:                                        ; preds = %.lr.ph, %.critedge, %.preheader.preheader
  %.2 = phi i64 [ %43, %.preheader.preheader ], [ 0, %.critedge ], [ 0, %.lr.ph ]
  call void @llvm.lifetime.end.p0(i64 8, ptr nonnull %5) #9
  br label %44

44:                                               ; preds = %4, %.loopexit
  %.032 = phi i64 [ %.2, %.loopexit ], [ 0, %4 ]
  ret i64 %.032
}